target datalayout = "e-m:e-p270:32:32-p271:32:32-p272:64:64-i64:64-i128:128-f80:128-n8:16:32:64-S128"
target triple = "x86_64-pc-linux-gnu"

%struct.rev_info = type { ptr, %struct.object_array, ptr, %struct.object_array, %struct.rev_cmdline_info, %struct.list_objects_filter_options, %struct.ref_exclusions, ptr, ptr, ptr, %struct.pathspec, i32, i32, i32, i32, i64, i32, i32, %struct.date_mode, i32, i32, i32, i32, ptr, i32, i32, ptr, ptr, i32, ptr, ptr, %struct.ident_split, ptr, i32, ptr, ptr, ptr, i32, i32, i32, ptr, %struct.grep_opt, ptr, i32, i32, i64, i64, i64, i32, i32, ptr, ptr, ptr, %struct.diff_options, %struct.diff_options, ptr, %struct.decoration, %struct.decoration, %struct.decoration, %struct.display_notes_opt, ptr, ptr, ptr, ptr, ptr, i32, ptr, i32, i32, i32, %struct.decoration, ptr, ptr, ptr, ptr, ptr, ptr, ptr, i32, ptr, i32, ptr, %struct.oidset }
%struct.object_array = type { i32, i32, ptr }
%struct.rev_cmdline_info = type { i32, i32, ptr }
%struct.list_objects_filter_options = type { %struct.strbuf, i32, i8, ptr, i64, i64, i32, i64, i64, ptr }
%struct.strbuf = type { i64, i64, ptr }
%struct.ref_exclusions = type { %struct.string_list, %struct.strvec, i8 }
%struct.string_list = type { ptr, i64, i64, i8, ptr }
%struct.strvec = type { ptr, i64, i64 }
%struct.pathspec = type { i32, i8, i32, i32, ptr }
%struct.date_mode = type { i32, i32, ptr }
%struct.ident_split = type { ptr, ptr, ptr, ptr, ptr, ptr, ptr, ptr }
%struct.grep_opt = type { ptr, ptr, ptr, ptr, ptr, ptr, i32, i32, i32, i32, i32, i32, i32, i32, i32, i32, i32, i32, i32, i32, i32, i32, i32, i32, i32, i32, i32, i32, i32, i32, i32, i32, [9 x [75 x i8]], i32, i32, i32, i32, i32, i32, i32, ptr, ptr, ptr }
%struct.diff_options = type { ptr, ptr, i32, i32, ptr, i32, ptr, i64, i64, ptr, ptr, ptr, ptr, %struct.diff_flags, i32, i32, i32, i32, i32, i32, i32, i32, i32, i32, i32, i32, i32, i32, i32, i32, i32, i32, i32, i32, i32, i32, ptr, i32, ptr, i32, i32, ptr, i64, i64, i32, i32, i32, i32, ptr, i32, i32, ptr, i32, i32, ptr, ptr, i32, [3 x i8], %struct.pathspec, ptr, ptr, ptr, ptr, ptr, ptr, ptr, ptr, i32, ptr, i32, i32, ptr, ptr, i32 }
%struct.diff_flags = type { i32, i32, i32, i32, i32, i32, i32, i32, i32, i32, i32, i32, i32, i32, i32, i32, i32, i32, i32, i32, i32, i32, i32, i32, i32, i32, i32, i32, i32, i32, i32, i32, i32, i32, i32 }
%struct.display_notes_opt = type { i32, %struct.string_list }
%struct.decoration = type { ptr, i32, i32, ptr }
%struct.oidset = type { %struct.kh_oid_set }
%struct.kh_oid_set = type { i32, i32, i32, i32, ptr, ptr, ptr }
%struct.repository = type { ptr, ptr, ptr, ptr, ptr, %struct.strmap, %struct.strmap, %struct.repo_path_cache, ptr, ptr, ptr, ptr, %struct.repo_settings, ptr, ptr, ptr, ptr, ptr, ptr, i32, i32, i32, ptr, ptr, i32, i32, i8 }
%struct.strmap = type { %struct.hashmap, ptr, i8 }
%struct.hashmap = type { ptr, ptr, ptr, i32, i32, i32, i32, i8 }
%struct.repo_path_cache = type { ptr, ptr, ptr, ptr, ptr, ptr, ptr }
%struct.repo_settings = type { i32, i32, i32, i32, i32, i32, i32, i32, i32, i32, i32, i32, ptr, i32, i32, i32, i32, i32, i32, i32, i64, i64, i64 }

@the_repository = external global ptr, align 8
@.str = private unnamed_addr constant [9 x i8] c"--cached\00", align 1
@.str.1 = private unnamed_addr constant [13 x i8] c"--merge-base\00", align 1
@.str.2 = private unnamed_addr constant [3 x i8] c"-m\00", align 1
@.str.3 = private unnamed_addr constant [24 x i8] c"repo_read_index_preload\00", align 1
@.str.4 = private unnamed_addr constant [16 x i8] c"repo_read_index\00", align 1

; Function Attrs: inlinehint nounwind uwtable
define internal ptr @precompose_argv_prefix(i32 noundef %0, ptr noundef %1, ptr noundef %2) #3 {
  %4 = alloca i32, align 4
  %5 = alloca ptr, align 8
  %6 = alloca ptr, align 8
  store i32 %0, ptr %4, align 4, !tbaa !4
  store ptr %1, ptr %5, align 8, !tbaa !8
  store ptr %2, ptr %6, align 8, !tbaa !11
  %7 = load ptr, ptr %6, align 8, !tbaa !11
  ret ptr %7
}

; Function Attrs: inlinehint nounwind uwtable
define internal void @git_config(ptr noundef %0, ptr noundef %1) #3 {
  %3 = alloca ptr, align 8
  %4 = alloca ptr, align 8
  store ptr %0, ptr %3, align 8, !tbaa !88
  store ptr %1, ptr %4, align 8, !tbaa !88
  %5 = load ptr, ptr @the_repository, align 8, !tbaa !13
  %6 = load ptr, ptr %3, align 8, !tbaa !88
  %7 = load ptr, ptr %4, align 8, !tbaa !88
  call void @repo_config(ptr noundef %5, ptr noundef %6, ptr noundef %7)
  ret void
}

; Function Attrs: nounwind uwtable
define dso_local i32 @cmd_diff_index(i32 noundef %0, ptr noundef %1, ptr noundef %2, ptr noundef %3) #0 {
  %5 = alloca i32, align 4
  %6 = alloca i32, align 4
  %7 = alloca ptr, align 8
  %8 = alloca ptr, align 8
  %9 = alloca ptr, align 8
  %10 = alloca %struct.rev_info, align 8
  %11 = alloca i32, align 4
  %12 = alloca i32, align 4
  %13 = alloca i32, align 4
  %14 = alloca ptr, align 8
  %15 = alloca i32, align 4
  store i32 %0, ptr %6, align 4, !tbaa !4
  store ptr %1, ptr %7, align 8, !tbaa !8
  store ptr %2, ptr %8, align 8, !tbaa !11
  store ptr %3, ptr %9, align 8, !tbaa !13
  call void @llvm.lifetime.start.p0(i64 3008, ptr %10) #6
  call void @llvm.lifetime.start.p0(i64 4, ptr %11) #6
  store i32 0, ptr %11, align 4, !tbaa !4
  call void @llvm.lifetime.start.p0(i64 4, ptr %12) #6
  call void @llvm.lifetime.start.p0(i64 4, ptr %13) #6
  %16 = load i32, ptr %6, align 4, !tbaa !4
  %17 = load ptr, ptr %7, align 8, !tbaa !8
  call void @show_usage_if_asked(i32 noundef %16, ptr noundef %17, ptr noundef @diff_cache_usage)
  call void @git_config(ptr noundef @git_diff_basic_config, ptr noundef null)
  %18 = load ptr, ptr @the_repository, align 8, !tbaa !13
  call void @prepare_repo_settings(ptr noundef %18)
  %19 = load ptr, ptr @the_repository, align 8, !tbaa !13
  %20 = getelementptr inbounds nuw %struct.repository, ptr %19, i32 0, i32 12
  %21 = getelementptr inbounds nuw %struct.repo_settings, ptr %20, i32 0, i32 6
  store i32 0, ptr %21, align 8, !tbaa !15
  %22 = load ptr, ptr @the_repository, align 8, !tbaa !13
  %23 = load ptr, ptr %8, align 8, !tbaa !11
  call void @repo_init_revisions(ptr noundef %22, ptr noundef %10, ptr noundef %23)
  %24 = getelementptr inbounds nuw %struct.rev_info, ptr %10, i32 0, i32 21
  store i32 0, ptr %24, align 8, !tbaa !34
  %25 = load i32, ptr %6, align 4, !tbaa !4
  %26 = load ptr, ptr %7, align 8, !tbaa !8
  %27 = load ptr, ptr %8, align 8, !tbaa !11
  %28 = call ptr @precompose_argv_prefix(i32 noundef %25, ptr noundef %26, ptr noundef %27)
  store ptr %28, ptr %8, align 8, !tbaa !11
  call void @diff_merges_suppress_m_parsing()
  %29 = load i32, ptr %6, align 4, !tbaa !4
  %30 = load ptr, ptr %7, align 8, !tbaa !8
  %31 = call i32 @setup_revisions(i32 noundef %29, ptr noundef %30, ptr noundef %10, ptr noundef null)
  store i32 %31, ptr %6, align 4, !tbaa !4
  store i32 1, ptr %12, align 4, !tbaa !4
  br label %32

32:                                               ; preds = %68, %4
  %33 = load i32, ptr %12, align 4, !tbaa !4
  %34 = load i32, ptr %6, align 4, !tbaa !4
  %35 = icmp slt i32 %33, %34
  br i1 %35, label %36, label %71

36:                                               ; preds = %32
  call void @llvm.lifetime.start.p0(i64 8, ptr %14) #6
  %37 = load ptr, ptr %7, align 8, !tbaa !8
  %38 = load i32, ptr %12, align 4, !tbaa !4
  %39 = sext i32 %38 to i64
  %40 = getelementptr inbounds ptr, ptr %37, i64 %39
  %41 = load ptr, ptr %40, align 8, !tbaa !11
  store ptr %41, ptr %14, align 8, !tbaa !11
  %42 = load ptr, ptr %14, align 8, !tbaa !11
  %43 = call i32 @strcmp(ptr noundef %42, ptr noundef @.str) #7
  %44 = icmp ne i32 %43, 0
  br i1 %44, label %48, label %45

45:                                               ; preds = %36
  %46 = load i32, ptr %11, align 4, !tbaa !4
  %47 = or i32 %46, 1
  store i32 %47, ptr %11, align 4, !tbaa !4
  br label %67

48:                                               ; preds = %36
  %49 = load ptr, ptr %14, align 8, !tbaa !11
  %50 = call i32 @strcmp(ptr noundef %49, ptr noundef @.str.1) #7
  %51 = icmp ne i32 %50, 0
  br i1 %51, label %55, label %52

52:                                               ; preds = %48
  %53 = load i32, ptr %11, align 4, !tbaa !4
  %54 = or i32 %53, 2
  store i32 %54, ptr %11, align 4, !tbaa !4
  br label %66

55:                                               ; preds = %48
  %56 = load ptr, ptr %14, align 8, !tbaa !11
  %57 = call i32 @strcmp(ptr noundef %56, ptr noundef @.str.2) #7
  %58 = icmp ne i32 %57, 0
  br i1 %58, label %64, label %59

59:                                               ; preds = %55
  %60 = getelementptr inbounds nuw %struct.rev_info, ptr %10, i32 0, i32 15
  %61 = load i64, ptr %60, align 8
  %62 = and i64 %61, -140737488355329
  %63 = or i64 %62, 140737488355328
  store i64 %63, ptr %60, align 8
  br label %65

64:                                               ; preds = %55
  call void @usage(ptr noundef @diff_cache_usage) #8
  unreachable

65:                                               ; preds = %59
  br label %66

66:                                               ; preds = %65, %52
  br label %67

67:                                               ; preds = %66, %45
  call void @llvm.lifetime.end.p0(i64 8, ptr %14) #6
  br label %68

68:                                               ; preds = %67
  %69 = load i32, ptr %12, align 4, !tbaa !4
  %70 = add nsw i32 %69, 1
  store i32 %70, ptr %12, align 4, !tbaa !4
  br label %32, !llvm.loop !80

71:                                               ; preds = %32
  %72 = getelementptr inbounds nuw %struct.rev_info, ptr %10, i32 0, i32 53
  %73 = getelementptr inbounds nuw %struct.diff_options, ptr %72, i32 0, i32 24
  %74 = load i32, ptr %73, align 4, !tbaa !82
  %75 = icmp ne i32 %74, 0
  br i1 %75, label %79, label %76

76:                                               ; preds = %71
  %77 = getelementptr inbounds nuw %struct.rev_info, ptr %10, i32 0, i32 53
  %78 = getelementptr inbounds nuw %struct.diff_options, ptr %77, i32 0, i32 24
  store i32 1, ptr %78, align 4, !tbaa !82
  br label %79

79:                                               ; preds = %76, %71
  %80 = getelementptr inbounds nuw %struct.rev_info, ptr %10, i32 0, i32 53
  %81 = getelementptr inbounds nuw %struct.diff_options, ptr %80, i32 0, i32 3
  store i32 1, ptr %81, align 4, !tbaa !83
  %82 = getelementptr inbounds nuw %struct.rev_info, ptr %10, i32 0, i32 1
  %83 = getelementptr inbounds nuw %struct.object_array, ptr %82, i32 0, i32 0
  %84 = load i32, ptr %83, align 8, !tbaa !84
  %85 = icmp ne i32 %84, 1
  br i1 %85, label %98, label %86

86:                                               ; preds = %79
  %87 = getelementptr inbounds nuw %struct.rev_info, ptr %10, i32 0, i32 44
  %88 = load i32, ptr %87, align 4, !tbaa !85
  %89 = icmp ne i32 %88, -1
  br i1 %89, label %98, label %90

90:                                               ; preds = %86
  %91 = getelementptr inbounds nuw %struct.rev_info, ptr %10, i32 0, i32 47
  %92 = load i64, ptr %91, align 8, !tbaa !86
  %93 = icmp ne i64 %92, -1
  br i1 %93, label %98, label %94

94:                                               ; preds = %90
  %95 = getelementptr inbounds nuw %struct.rev_info, ptr %10, i32 0, i32 45
  %96 = load i64, ptr %95, align 8, !tbaa !87
  %97 = icmp ne i64 %96, -1
  br i1 %97, label %98, label %99

98:                                               ; preds = %94, %90, %86, %79
  call void @usage(ptr noundef @diff_cache_usage) #8
  unreachable

99:                                               ; preds = %94
  %100 = load i32, ptr %11, align 4, !tbaa !4
  %101 = and i32 %100, 1
  %102 = icmp ne i32 %101, 0
  br i1 %102, label %111, label %103

103:                                              ; preds = %99
  call void @setup_work_tree()
  %104 = load ptr, ptr @the_repository, align 8, !tbaa !13
  %105 = getelementptr inbounds nuw %struct.rev_info, ptr %10, i32 0, i32 53
  %106 = getelementptr inbounds nuw %struct.diff_options, ptr %105, i32 0, i32 58
  %107 = call i32 @repo_read_index_preload(ptr noundef %104, ptr noundef %106, i32 noundef 0)
  %108 = icmp slt i32 %107, 0
  br i1 %108, label %109, label %110

109:                                              ; preds = %103
  call void @perror(ptr noundef @.str.3)
  store i32 -1, ptr %5, align 4
  store i32 1, ptr %15, align 4
  br label %121

110:                                              ; preds = %103
  br label %117

111:                                              ; preds = %99
  %112 = load ptr, ptr @the_repository, align 8, !tbaa !13
  %113 = call i32 @repo_read_index(ptr noundef %112)
  %114 = icmp slt i32 %113, 0
  br i1 %114, label %115, label %116

115:                                              ; preds = %111
  call void @perror(ptr noundef @.str.4)
  store i32 -1, ptr %5, align 4
  store i32 1, ptr %15, align 4
  br label %121

116:                                              ; preds = %111
  br label %117

117:                                              ; preds = %116, %110
  %118 = load i32, ptr %11, align 4, !tbaa !4
  call void @run_diff_index(ptr noundef %10, i32 noundef %118)
  %119 = call i32 @diff_result_code(ptr noundef %10)
  store i32 %119, ptr %13, align 4, !tbaa !4
  call void @release_revisions(ptr noundef %10)
  %120 = load i32, ptr %13, align 4, !tbaa !4
  store i32 %120, ptr %5, align 4
  store i32 1, ptr %15, align 4
  br label %121

121:                                              ; preds = %117, %115, %109
  call void @llvm.lifetime.end.p0(i64 4, ptr %13) #6
  call void @llvm.lifetime.end.p0(i64 4, ptr %12) #6
  call void @llvm.lifetime.end.p0(i64 4, ptr %11) #6
  call void @llvm.lifetime.end.p0(i64 3008, ptr %10) #6
  %122 = load i32, ptr %5, align 4
  ret i32 %122
}