; Function Attrs: nounwind uwtable
define dso_local i32 @cmd_diff_index(i32 noundef %0, ptr noundef %1, ptr noundef %2, ptr noundef readnone captures(none) %3) local_unnamed_addr #0 {
  %5 = alloca %struct.rev_info, align 8
  call void @llvm.lifetime.start.p0(i64 3008, ptr nonnull %5) #6
  tail call void @show_usage_if_asked(i32 noundef %0, ptr noundef %1, ptr noundef nonnull @diff_cache_usage) #6
  %6 = load ptr, ptr @the_repository, align 8, !tbaa !4
  tail call void @repo_config(ptr noundef %6, ptr noundef nonnull @git_diff_basic_config, ptr noundef null) #6
  %7 = load ptr, ptr @the_repository, align 8, !tbaa !4
  tail call void @prepare_repo_settings(ptr noundef %7) #6
  %8 = load ptr, ptr @the_repository, align 8, !tbaa !4
  %9 = getelementptr inbounds nuw i8, ptr %8, i64 280
  store i32 0, ptr %9, align 8, !tbaa !9
  call void @repo_init_revisions(ptr noundef %8, ptr noundef nonnull %5, ptr noundef %2) #6
  %10 = getelementptr inbounds nuw i8, ptr %5, i64 328
  store i32 0, ptr %10, align 8, !tbaa !30
  call void @diff_merges_suppress_m_parsing() #6
  %11 = call i32 @setup_revisions(i32 noundef %0, ptr noundef %1, ptr noundef nonnull %5, ptr noundef null) #6
  %12 = icmp sgt i32 %11, 1
  br i1 %12, label %.lr.ph, label %._crit_edge

.lr.ph:                                           ; preds = %4
  %13 = getelementptr inbounds nuw i8, ptr %5, i64 288
  %.promoted = load i64, ptr %13, align 8
  %wide.trip.count = zext nneg i32 %11 to i64
  br label %14

14:                                               ; preds = %.lr.ph, %33
  %indvars.iv = phi i64 [ 1, %.lr.ph ], [ %indvars.iv.next, %33 ]
  %15 = phi i64 [ %.promoted, %.lr.ph ], [ %34, %33 ]
  %.03036 = phi i32 [ 0, %.lr.ph ], [ %.1, %33 ]
  %16 = getelementptr inbounds nuw ptr, ptr %1, i64 %indvars.iv
  %17 = load ptr, ptr %16, align 8, !tbaa !77
  %18 = call i32 @strcmp(ptr noundef nonnull dereferenceable(1) %17, ptr noundef nonnull dereferenceable(9) @.str) #7
  %.not32 = icmp eq i32 %18, 0
  br i1 %.not32, label %19, label %21

19:                                               ; preds = %14
  %20 = or i32 %.03036, 1
  br label %33

21:                                               ; preds = %14
  %22 = call i32 @strcmp(ptr noundef nonnull dereferenceable(1) %17, ptr noundef nonnull dereferenceable(13) @.str.1) #7
  %.not33 = icmp eq i32 %22, 0
  br i1 %.not33, label %23, label %sub_0

23:                                               ; preds = %21
  %24 = or i32 %.03036, 2
  br label %33

sub_0:                                            ; preds = %21
  %25 = load i8, ptr %17, align 1
  %.not38 = icmp eq i8 %25, 45
  br i1 %.not38, label %sub_1, label %.tail.thread

sub_1:                                            ; preds = %sub_0
  %26 = getelementptr inbounds nuw i8, ptr %17, i64 1
  %27 = load i8, ptr %26, align 1
  %.not39 = icmp eq i8 %27, 109
  br i1 %.not39, label %.tail, label %.tail.thread

.tail:                                            ; preds = %sub_1
  %28 = getelementptr inbounds nuw i8, ptr %17, i64 2
  %29 = load i8, ptr %28, align 1
  %30 = icmp eq i8 %29, 0
  br i1 %30, label %31, label %.tail.thread

31:                                               ; preds = %.tail
  %32 = or i64 %15, 140737488355328
  store i64 %32, ptr %13, align 8
  br label %33

.tail.thread:                                     ; preds = %sub_1, %sub_0, %.tail
  call void @usage(ptr noundef nonnull @diff_cache_usage) #8
  unreachable

33:                                               ; preds = %23, %31, %19
  %34 = phi i64 [ %32, %31 ], [ %15, %23 ], [ %15, %19 ]
  %.1 = phi i32 [ %.03036, %31 ], [ %24, %23 ], [ %20, %19 ]
  %indvars.iv.next = add nuw nsw i64 %indvars.iv, 1
  %exitcond.not = icmp eq i64 %indvars.iv.next, %wide.trip.count
  br i1 %exitcond.not, label %._crit_edge, label %14, !llvm.loop !78

._crit_edge:                                      ; preds = %33, %4
  %.030.lcssa = phi i32 [ 0, %4 ], [ %.1, %33 ]
  %35 = getelementptr inbounds nuw i8, ptr %5, i64 1748
  %36 = load i32, ptr %35, align 4, !tbaa !80
  %.not = icmp eq i32 %36, 0
  br i1 %.not, label %37, label %38

37:                                               ; preds = %._crit_edge
  store i32 1, ptr %35, align 4, !tbaa !80
  br label %38

38:                                               ; preds = %37, %._crit_edge
  %39 = getelementptr inbounds nuw i8, ptr %5, i64 1492
  store i32 1, ptr %39, align 4, !tbaa !81
  %40 = getelementptr inbounds nuw i8, ptr %5, i64 8
  %41 = load i32, ptr %40, align 8, !tbaa !82
  %42 = icmp ne i32 %41, 1
  %43 = getelementptr inbounds nuw i8, ptr %5, i64 1412
  %44 = load i32, ptr %43, align 4
  %45 = icmp ne i32 %44, -1
  %or.cond = select i1 %42, i1 true, i1 %45
  %46 = getelementptr inbounds nuw i8, ptr %5, i64 1432
  %47 = load i64, ptr %46, align 8
  %48 = icmp ne i64 %47, -1
  %or.cond5 = select i1 %or.cond, i1 true, i1 %48
  %49 = getelementptr inbounds nuw i8, ptr %5, i64 1416
  %50 = load i64, ptr %49, align 8
  %51 = icmp ne i64 %50, -1
  %or.cond8 = select i1 %or.cond5, i1 true, i1 %51
  br i1 %or.cond8, label %52, label %53

52:                                               ; preds = %38
  call void @usage(ptr noundef nonnull @diff_cache_usage) #8
  unreachable

53:                                               ; preds = %38
  %54 = and i32 %.030.lcssa, 1
  %.not31 = icmp eq i32 %54, 0
  br i1 %.not31, label %55, label %61

55:                                               ; preds = %53
  call void @setup_work_tree() #6
  %56 = load ptr, ptr @the_repository, align 8, !tbaa !4
  %57 = getelementptr inbounds nuw i8, ptr %5, i64 1928
  %58 = call i32 @repo_read_index_preload(ptr noundef %56, ptr noundef nonnull %57, i32 noundef 0) #6
  %59 = icmp slt i32 %58, 0
  br i1 %59, label %60, label %66

60:                                               ; preds = %55
  call void @perror(ptr noundef nonnull @.str.3) #9
  br label %68

61:                                               ; preds = %53
  %62 = load ptr, ptr @the_repository, align 8, !tbaa !4
  %63 = call i32 @repo_read_index(ptr noundef %62) #6
  %64 = icmp slt i32 %63, 0
  br i1 %64, label %65, label %66

65:                                               ; preds = %61
  call void @perror(ptr noundef nonnull @.str.4) #9
  br label %68

66:                                               ; preds = %61, %55
  call void @run_diff_index(ptr noundef nonnull %5, i32 noundef %.030.lcssa) #6
  %67 = call i32 @diff_result_code(ptr noundef nonnull %5) #6
  call void @release_revisions(ptr noundef nonnull %5) #6
  br label %68

68:                                               ; preds = %66, %65, %60
  %.0 = phi i32 [ -1, %65 ], [ %67, %66 ], [ -1, %60 ]
  call void @llvm.lifetime.end.p0(i64 3008, ptr nonnull %5) #6
  ret i32 %.0
}